; Function Attrs: nofree norecurse nosync nounwind memory(argmem: readwrite) uwtable
define internal void @blend_normal_16bit(ptr noundef readonly captures(none) %0, i64 noundef %1, ptr noundef readonly captures(none) %2, i64 noundef %3, ptr noundef writeonly captures(none) %4, i64 noundef %5, i64 noundef %6, i64 noundef %7, ptr noundef readonly captures(none) %8, ptr readnone captures(none) %9) #6 {
  %11 = getelementptr inbounds nuw i8, ptr %8, i64 8
  %12 = load double, ptr %11, align 8, !tbaa !70
  %13 = fptrunc nsz double %12 to float
  %14 = lshr i64 %5, 1
  %15 = lshr i64 %1, 1
  %16 = lshr i64 %3, 1
  %17 = icmp sgt i64 %7, 0
  br i1 %17, label %.preheader.lr.ph, label %._crit_edge36

.preheader.lr.ph:                                 ; preds = %10
  %18 = icmp sgt i64 %6, 0
  %19 = fsub nsz float 1.000000e+00, %13
  br i1 %18, label %.preheader.us, label %._crit_edge36

.preheader.us:                                    ; preds = %.preheader.lr.ph, %._crit_edge.us
  %indvars.iv40 = phi i64 [ %indvars.iv.next41, %._crit_edge.us ], [ 0, %.preheader.lr.ph ]
  %.02734.us = phi ptr [ %31, %._crit_edge.us ], [ %4, %.preheader.lr.ph ]
  %.02833.us = phi ptr [ %33, %._crit_edge.us ], [ %2, %.preheader.lr.ph ]
  %.02932.us = phi ptr [ %32, %._crit_edge.us ], [ %0, %.preheader.lr.ph ]
  br label %20

20:                                               ; preds = %.preheader.us, %20
  %indvars.iv = phi i64 [ 0, %.preheader.us ], [ %indvars.iv.next, %20 ]
  %21 = getelementptr inbounds nuw i16, ptr %.02932.us, i64 %indvars.iv
  %22 = load i16, ptr %21, align 2, !tbaa !85
  %23 = uitofp i16 %22 to float
  %24 = getelementptr inbounds nuw i16, ptr %.02833.us, i64 %indvars.iv
  %25 = load i16, ptr %24, align 2, !tbaa !85
  %26 = uitofp i16 %25 to float
  %27 = fmul nsz float %19, %26
  %28 = tail call nsz float @llvm.fmuladd.f32(float %23, float %13, float %27)
  %29 = fptoui float %28 to i16
  %30 = getelementptr inbounds nuw i16, ptr %.02734.us, i64 %indvars.iv
  store i16 %29, ptr %30, align 2, !tbaa !85
  %indvars.iv.next = add nuw nsw i64 %indvars.iv, 1
  %exitcond.not = icmp eq i64 %indvars.iv.next, %6
  br i1 %exitcond.not, label %._crit_edge.us, label %20, !llvm.loop !216

._crit_edge.us:                                   ; preds = %20
  %31 = getelementptr inbounds nuw i16, ptr %.02734.us, i64 %14
  %32 = getelementptr inbounds nuw i16, ptr %.02932.us, i64 %15
  %33 = getelementptr inbounds nuw i16, ptr %.02833.us, i64 %16
  %indvars.iv.next41 = add nuw nsw i64 %indvars.iv40, 1
  %exitcond43.not = icmp eq i64 %indvars.iv.next41, %7
  br i1 %exitcond43.not, label %._crit_edge36, label %.preheader.us, !llvm.loop !217

._crit_edge36:                                    ; preds = %._crit_edge.us, %.preheader.lr.ph, %10
  ret void
}